target datalayout = "e-m:e-p270:32:32-p271:32:32-p272:64:64-i64:64-i128:128-f80:128-n8:16:32:64-S128"
target triple = "x86_64-pc-linux-gnu"

%"struct.google::protobuf::internal::EnumEntry" = type <{ %"class.google::protobuf::StringPiece", i32, [4 x i8] }>
%"class.google::protobuf::StringPiece" = type { ptr, i64 }
%"class.google::protobuf::internal::ExplicitlyConstructed.0" = type { %"union.google::protobuf::internal::ExplicitlyConstructed<std::__cxx11::basic_string<char>>::AlignedUnion" }
%"union.google::protobuf::internal::ExplicitlyConstructed<std::__cxx11::basic_string<char>>::AlignedUnion" = type { i64, [24 x i8] }

@_ZN4i18n12phonenumbersL37PhoneNumber_CountryCodeSource_entriesE = internal global [5 x %"struct.google::protobuf::internal::EnumEntry"] zeroinitializer, align 16
@_ZZN4i18n12phonenumbers34PhoneNumber_CountryCodeSource_NameB5cxx11ENS0_29PhoneNumber_CountryCodeSourceEE5dummy = internal global i8 0, align 1
@_ZGVZN4i18n12phonenumbers34PhoneNumber_CountryCodeSource_NameB5cxx11ENS0_29PhoneNumber_CountryCodeSourceEE5dummy = internal global i64 0, align 8
@_ZN4i18n12phonenumbersL47PhoneNumber_CountryCodeSource_entries_by_numberE = internal constant [5 x i32] [i32 4, i32 3, i32 2, i32 1, i32 0], align 16
@_ZN4i18n12phonenumbersL37PhoneNumber_CountryCodeSource_stringsB5cxx11E = internal global [5 x %"class.google::protobuf::internal::ExplicitlyConstructed.0"] zeroinitializer, align 16
@_ZN6google8protobuf8internal26fixed_address_empty_stringB5cxx11E = external global %"class.google::protobuf::internal::ExplicitlyConstructed.0", align 8

; Function Attrs: inlinehint mustprogress nounwind uwtable
define linkonce_odr dso_local noundef nonnull align 8 dereferenceable(32) ptr @_ZN6google8protobuf8internal27GetEmptyStringAlreadyInitedB5cxx11Ev() #9 comdat {
  %1 = call noundef nonnull align 8 dereferenceable(32) ptr @_ZNK6google8protobuf8internal21ExplicitlyConstructedINSt7__cxx1112basic_stringIcSt11char_traitsIcESaIcEEEE3getEv(ptr noundef nonnull align 8 dereferenceable(32) @_ZN6google8protobuf8internal26fixed_address_empty_stringB5cxx11E)
  ret ptr %1
}

; Function Attrs: mustprogress nounwind uwtable
define linkonce_odr dso_local noundef nonnull align 8 dereferenceable(32) ptr @_ZNK6google8protobuf8internal21ExplicitlyConstructedINSt7__cxx1112basic_stringIcSt11char_traitsIcESaIcEEEE3getEv(ptr noundef nonnull align 8 dereferenceable(32) %0) #5 comdat align 2 {
  %2 = alloca ptr, align 8
  store ptr %0, ptr %2, align 8, !tbaa !26
  %3 = load ptr, ptr %2, align 8
  %4 = getelementptr inbounds nuw %"class.google::protobuf::internal::ExplicitlyConstructed.0", ptr %3, i32 0, i32 0
  ret ptr %4
}

; Function Attrs: inlinehint mustprogress uwtable
define linkonce_odr dso_local noundef nonnull align 8 dereferenceable(32) ptr @_ZN6google8protobuf8internal14GetEmptyStringB5cxx11Ev() #7 comdat {
  call void @_ZN6google8protobuf8internal20InitProtobufDefaultsEv()
  %1 = call noundef nonnull align 8 dereferenceable(32) ptr @_ZN6google8protobuf8internal27GetEmptyStringAlreadyInitedB5cxx11Ev()
  ret ptr %1
}

; Function Attrs: mustprogress uwtable
define dso_local noundef nonnull align 8 dereferenceable(32) ptr @_ZN4i18n12phonenumbers34PhoneNumber_CountryCodeSource_NameB5cxx11ENS0_29PhoneNumber_CountryCodeSourceE(i32 noundef %0) #4 personality ptr @__gxx_personality_v0 {
  %2 = alloca i32, align 4
  %3 = alloca ptr, align 8
  %4 = alloca i32, align 4
  %5 = alloca i32, align 4
  store i32 %0, ptr %2, align 4, !tbaa !21
  %6 = load atomic i8, ptr @_ZGVZN4i18n12phonenumbers34PhoneNumber_CountryCodeSource_NameB5cxx11ENS0_29PhoneNumber_CountryCodeSourceEE5dummy acquire, align 8
  %7 = icmp eq i8 %6, 0
  br i1 %7, label %8, label %16, !prof !23

8:                                                ; preds = %1
  %9 = call i32 @__cxa_guard_acquire(ptr @_ZGVZN4i18n12phonenumbers34PhoneNumber_CountryCodeSource_NameB5cxx11ENS0_29PhoneNumber_CountryCodeSourceEE5dummy) #3
  %10 = icmp ne i32 %9, 0
  br i1 %10, label %11, label %16

11:                                               ; preds = %8
  %12 = invoke noundef zeroext i1 @_ZN6google8protobuf8internal21InitializeEnumStringsEPKNS1_9EnumEntryEPKimPNS1_21ExplicitlyConstructedINSt7__cxx1112basic_stringIcSt11char_traitsIcESaIcEEEEE(ptr noundef @_ZN4i18n12phonenumbersL37PhoneNumber_CountryCodeSource_entriesE, ptr noundef @_ZN4i18n12phonenumbersL47PhoneNumber_CountryCodeSource_entries_by_numberE, i64 noundef 5, ptr noundef @_ZN4i18n12phonenumbersL37PhoneNumber_CountryCodeSource_stringsB5cxx11E)
          to label %13 unwind label %30

13:                                               ; preds = %11
  %14 = zext i1 %12 to i8
  store i8 %14, ptr @_ZZN4i18n12phonenumbers34PhoneNumber_CountryCodeSource_NameB5cxx11ENS0_29PhoneNumber_CountryCodeSourceEE5dummy, align 1, !tbaa !24
  %15 = call ptr @llvm.invariant.start.p0(i64 1, ptr @_ZZN4i18n12phonenumbers34PhoneNumber_CountryCodeSource_NameB5cxx11ENS0_29PhoneNumber_CountryCodeSourceEE5dummy)
  call void @__cxa_guard_release(ptr @_ZGVZN4i18n12phonenumbers34PhoneNumber_CountryCodeSource_NameB5cxx11ENS0_29PhoneNumber_CountryCodeSourceEE5dummy) #3
  br label %16

16:                                               ; preds = %13, %8, %1
  call void @llvm.lifetime.start.p0(i64 4, ptr %5) #3
  %17 = load i32, ptr %2, align 4, !tbaa !21
  %18 = call noundef i32 @_ZN6google8protobuf8internal14LookUpEnumNameEPKNS1_9EnumEntryEPKimi(ptr noundef @_ZN4i18n12phonenumbersL37PhoneNumber_CountryCodeSource_entriesE, ptr noundef @_ZN4i18n12phonenumbersL47PhoneNumber_CountryCodeSource_entries_by_numberE, i64 noundef 5, i32 noundef %17)
  store i32 %18, ptr %5, align 4, !tbaa !8
  %19 = load i32, ptr %5, align 4, !tbaa !8
  %20 = icmp eq i32 %19, -1
  br i1 %20, label %21, label %23

21:                                               ; preds = %16
  %22 = call noundef nonnull align 8 dereferenceable(32) ptr @_ZN6google8protobuf8internal14GetEmptyStringB5cxx11Ev()
  br label %28

23:                                               ; preds = %16
  %24 = load i32, ptr %5, align 4, !tbaa !8
  %25 = sext i32 %24 to i64
  %26 = getelementptr inbounds [5 x %"class.google::protobuf::internal::ExplicitlyConstructed.0"], ptr @_ZN4i18n12phonenumbersL37PhoneNumber_CountryCodeSource_stringsB5cxx11E, i64 0, i64 %25
  %27 = call noundef nonnull align 8 dereferenceable(32) ptr @_ZNK6google8protobuf8internal21ExplicitlyConstructedINSt7__cxx1112basic_stringIcSt11char_traitsIcESaIcEEEE3getEv(ptr noundef nonnull align 8 dereferenceable(32) %26)
  br label %28

28:                                               ; preds = %23, %21
  %29 = phi ptr [ %22, %21 ], [ %27, %23 ]
  call void @llvm.lifetime.end.p0(i64 4, ptr %5) #3
  ret ptr %29

30:                                               ; preds = %11
  %31 = landingpad { ptr, i32 }
          cleanup
  %32 = extractvalue { ptr, i32 } %31, 0
  store ptr %32, ptr %3, align 8
  %33 = extractvalue { ptr, i32 } %31, 1
  store i32 %33, ptr %4, align 4
  call void @__cxa_guard_abort(ptr @_ZGVZN4i18n12phonenumbers34PhoneNumber_CountryCodeSource_NameB5cxx11ENS0_29PhoneNumber_CountryCodeSourceEE5dummy) #3
  br label %34

34:                                               ; preds = %30
  %35 = load ptr, ptr %3, align 8
  %36 = load i32, ptr %4, align 4
  %37 = insertvalue { ptr, i32 } poison, ptr %35, 0
  %38 = insertvalue { ptr, i32 } %37, i32 %36, 1
  resume { ptr, i32 } %38
}