; Function Attrs: mustprogress uwtable
define dso_local noundef nonnull align 8 dereferenceable(32) ptr @_ZN4i18n12phonenumbers34PhoneNumber_CountryCodeSource_NameB5cxx11ENS0_29PhoneNumber_CountryCodeSourceE(i32 noundef %0) local_unnamed_addr #3 personality ptr @__gxx_personality_v0 {
  %2 = load atomic i8, ptr @_ZGVZN4i18n12phonenumbers34PhoneNumber_CountryCodeSource_NameB5cxx11ENS0_29PhoneNumber_CountryCodeSourceEE5dummy acquire, align 8
  %3 = icmp eq i8 %2, 0
  br i1 %3, label %4, label %11, !prof !26

4:                                                ; preds = %1
  %5 = tail call i32 @__cxa_guard_acquire(ptr nonnull @_ZGVZN4i18n12phonenumbers34PhoneNumber_CountryCodeSource_NameB5cxx11ENS0_29PhoneNumber_CountryCodeSourceEE5dummy) #23
  %.not = icmp eq i32 %5, 0
  br i1 %.not, label %11, label %6

6:                                                ; preds = %4
  %7 = invoke noundef zeroext i1 @_ZN6google8protobuf8internal21InitializeEnumStringsEPKNS1_9EnumEntryEPKimPNS1_21ExplicitlyConstructedINSt7__cxx1112basic_stringIcSt11char_traitsIcESaIcEEEEE(ptr noundef nonnull @_ZN4i18n12phonenumbersL37PhoneNumber_CountryCodeSource_entriesE, ptr noundef nonnull @_ZN4i18n12phonenumbersL47PhoneNumber_CountryCodeSource_entries_by_numberE, i64 noundef 5, ptr noundef nonnull @_ZN4i18n12phonenumbersL37PhoneNumber_CountryCodeSource_stringsB5cxx11E)
          to label %8 unwind label %20

8:                                                ; preds = %6
  %9 = zext i1 %7 to i8
  store i8 %9, ptr @_ZZN4i18n12phonenumbers34PhoneNumber_CountryCodeSource_NameB5cxx11ENS0_29PhoneNumber_CountryCodeSourceEE5dummy, align 1, !tbaa !27
  %10 = tail call ptr @llvm.invariant.start.p0(i64 1, ptr nonnull @_ZZN4i18n12phonenumbers34PhoneNumber_CountryCodeSource_NameB5cxx11ENS0_29PhoneNumber_CountryCodeSourceEE5dummy)
  tail call void @__cxa_guard_release(ptr nonnull @_ZGVZN4i18n12phonenumbers34PhoneNumber_CountryCodeSource_NameB5cxx11ENS0_29PhoneNumber_CountryCodeSourceEE5dummy) #23
  br label %11

11:                                               ; preds = %8, %4, %1
  %12 = tail call noundef i32 @_ZN6google8protobuf8internal14LookUpEnumNameEPKNS1_9EnumEntryEPKimi(ptr noundef nonnull @_ZN4i18n12phonenumbersL37PhoneNumber_CountryCodeSource_entriesE, ptr noundef nonnull @_ZN4i18n12phonenumbersL47PhoneNumber_CountryCodeSource_entries_by_numberE, i64 noundef 5, i32 noundef %0)
  %13 = icmp eq i32 %12, -1
  br i1 %13, label %14, label %15

14:                                               ; preds = %11
  tail call void @_ZN6google8protobuf8internal20InitProtobufDefaultsEv()
  br label %18

15:                                               ; preds = %11
  %16 = sext i32 %12 to i64
  %17 = getelementptr inbounds [5 x %"class.google::protobuf::internal::ExplicitlyConstructed.0"], ptr @_ZN4i18n12phonenumbersL37PhoneNumber_CountryCodeSource_stringsB5cxx11E, i64 0, i64 %16
  br label %18

18:                                               ; preds = %15, %14
  %19 = phi ptr [ @_ZN6google8protobuf8internal26fixed_address_empty_stringB5cxx11E, %14 ], [ %17, %15 ]
  ret ptr %19

20:                                               ; preds = %6
  %21 = landingpad { ptr, i32 }
          cleanup
  tail call void @__cxa_guard_abort(ptr nonnull @_ZGVZN4i18n12phonenumbers34PhoneNumber_CountryCodeSource_NameB5cxx11ENS0_29PhoneNumber_CountryCodeSourceEE5dummy) #23
  resume { ptr, i32 } %21
}